target datalayout = "e-m:e-p270:32:32-p271:32:32-p272:64:64-i64:64-i128:128-f80:128-n8:16:32:64-S128"
target triple = "x86_64-pc-linux-gnu"

%struct.tm = type { i32, i32, i32, i32, i32, i32, i32, i32, i32, i64, ptr }

; Function Attrs: nounwind uwtable
define internal void @mz_zip_time_t_to_dos_time(i64 noundef %0, ptr noundef %1, ptr noundef %2) #0 {
  %4 = alloca i64, align 8
  %5 = alloca ptr, align 8
  %6 = alloca ptr, align 8
  %7 = alloca ptr, align 8
  store i64 %0, ptr %4, align 8
  store ptr %1, ptr %5, align 8
  store ptr %2, ptr %6, align 8
  call void @llvm.lifetime.start.p0(i64 8, ptr %7) #13
  %8 = call ptr @localtime(ptr noundef %4) #13
  store ptr %8, ptr %7, align 8
  %9 = load ptr, ptr %7, align 8
  %10 = getelementptr inbounds nuw %struct.tm, ptr %9, i32 0, i32 2
  %11 = load i32, ptr %10, align 8
  %12 = shl i32 %11, 11
  %13 = load ptr, ptr %7, align 8
  %14 = getelementptr inbounds nuw %struct.tm, ptr %13, i32 0, i32 1
  %15 = load i32, ptr %14, align 4
  %16 = shl i32 %15, 5
  %17 = add nsw i32 %12, %16
  %18 = load ptr, ptr %7, align 8
  %19 = getelementptr inbounds nuw %struct.tm, ptr %18, i32 0, i32 0
  %20 = load i32, ptr %19, align 8
  %21 = ashr i32 %20, 1
  %22 = add nsw i32 %17, %21
  %23 = trunc i32 %22 to i16
  %24 = load ptr, ptr %5, align 8
  store i16 %23, ptr %24, align 2
  %25 = load ptr, ptr %7, align 8
  %26 = getelementptr inbounds nuw %struct.tm, ptr %25, i32 0, i32 5
  %27 = load i32, ptr %26, align 4
  %28 = add nsw i32 %27, 1900
  %29 = sub nsw i32 %28, 1980
  %30 = shl i32 %29, 9
  %31 = load ptr, ptr %7, align 8
  %32 = getelementptr inbounds nuw %struct.tm, ptr %31, i32 0, i32 4
  %33 = load i32, ptr %32, align 8
  %34 = add nsw i32 %33, 1
  %35 = shl i32 %34, 5
  %36 = add nsw i32 %30, %35
  %37 = load ptr, ptr %7, align 8
  %38 = getelementptr inbounds nuw %struct.tm, ptr %37, i32 0, i32 3
  %39 = load i32, ptr %38, align 4
  %40 = add nsw i32 %36, %39
  %41 = trunc i32 %40 to i16
  %42 = load ptr, ptr %6, align 8
  store i16 %41, ptr %42, align 2
  call void @llvm.lifetime.end.p0(i64 8, ptr %7) #13
  ret void
}