; Function Attrs: nounwind uwtable
define internal fastcc void @mz_zip_time_t_to_dos_time(i64 noundef %0, ptr noundef nonnull writeonly captures(none) initializes((0, 2)) %1, ptr noundef nonnull writeonly captures(none) initializes((0, 2)) %2) unnamed_addr #8 {
  %4 = alloca i64, align 8
  store i64 %0, ptr %4, align 8
  %5 = call ptr @localtime(ptr noundef nonnull %4) #34
  %6 = getelementptr inbounds nuw i8, ptr %5, i64 8
  %7 = load i32, ptr %6, align 8
  %8 = shl i32 %7, 11
  %9 = getelementptr inbounds nuw i8, ptr %5, i64 4
  %10 = load i32, ptr %9, align 4
  %11 = shl i32 %10, 5
  %12 = add nsw i32 %11, %8
  %13 = load i32, ptr %5, align 8
  %14 = lshr i32 %13, 1
  %15 = add i32 %12, %14
  %16 = trunc i32 %15 to i16
  store i16 %16, ptr %1, align 2
  %17 = getelementptr inbounds nuw i8, ptr %5, i64 20
  %18 = load i32, ptr %17, align 4
  %19 = shl i32 %18, 9
  %20 = getelementptr inbounds nuw i8, ptr %5, i64 16
  %21 = load i32, ptr %20, align 8
  %22 = shl i32 %21, 5
  %23 = getelementptr inbounds nuw i8, ptr %5, i64 12
  %24 = load i32, ptr %23, align 4
  %25 = add i32 %19, 24608
  %26 = add i32 %25, %22
  %27 = add i32 %26, %24
  %28 = trunc i32 %27 to i16
  store i16 %28, ptr %2, align 2
  ret void
}